; Function Attrs: nounwind uwtable
define range(i32 -1, 1) i32 @JNU_CopyObjectArray(ptr noundef %0, ptr noundef %1, ptr noundef %2, i32 noundef %3) local_unnamed_addr #0 {
  %5 = load ptr, ptr %0, align 8
  %6 = getelementptr inbounds i8, ptr %5, i64 208
  %7 = load ptr, ptr %6, align 8
  %8 = tail call i32 %7(ptr noundef nonnull %0, i32 noundef 1) #10
  %9 = icmp slt i32 %8, 0
  br i1 %9, label %.loopexit, label %.preheader

.preheader:                                       ; preds = %4
  %10 = icmp sgt i32 %3, 0
  br i1 %10, label %.lr.ph, label %.loopexit

.lr.ph:                                           ; preds = %.preheader, %.lr.ph
  %.01718 = phi i32 [ %21, %.lr.ph ], [ 0, %.preheader ]
  %11 = load ptr, ptr %0, align 8
  %12 = getelementptr inbounds i8, ptr %11, i64 1384
  %13 = load ptr, ptr %12, align 8
  %14 = tail call ptr %13(ptr noundef nonnull %0, ptr noundef %2, i32 noundef %.01718) #10
  %15 = load ptr, ptr %0, align 8
  %16 = getelementptr inbounds i8, ptr %15, i64 1392
  %17 = load ptr, ptr %16, align 8
  tail call void %17(ptr noundef nonnull %0, ptr noundef %1, i32 noundef %.01718, ptr noundef %14) #10
  %18 = load ptr, ptr %0, align 8
  %19 = getelementptr inbounds i8, ptr %18, i64 184
  %20 = load ptr, ptr %19, align 8
  tail call void %20(ptr noundef nonnull %0, ptr noundef %14) #10
  %21 = add nuw nsw i32 %.01718, 1
  %exitcond.not = icmp eq i32 %21, %3
  br i1 %exitcond.not, label %.loopexit, label %.lr.ph, !llvm.loop !18

.loopexit:                                        ; preds = %.lr.ph, %.preheader, %4
  %.0 = phi i32 [ -1, %4 ], [ 0, %.preheader ], [ 0, %.lr.ph ]
  ret i32 %.0
}